target datalayout = "e-m:e-p270:32:32-p271:32:32-p272:64:64-i64:64-i128:128-f80:128-n8:16:32:64-S128"
target triple = "x86_64-pc-linux-gnu"

%"class.icu_77::RegexMatcher" = type { %"class.icu_77::UObject", ptr, ptr, ptr, ptr, ptr, i64, i32, i64, i64, i64, i64, i64, i64, i64, i64, i8, i8, i8, i64, i64, i64, i64, i8, i8, ptr, ptr, ptr, [8 x i64], i32, i32, i32, i32, ptr, ptr, ptr, ptr, i8, i8, i32, ptr, ptr }
%"class.icu_77::UObject" = type { ptr }

; Function Attrs: inlinehint mustprogress nounwind uwtable
define internal noundef signext i8 @_ZL9U_FAILURE10UErrorCode(i32 noundef %0) #2 {
  %2 = alloca i32, align 4
  store i32 %0, ptr %2, align 4, !tbaa !15
  %3 = load i32, ptr %2, align 4, !tbaa !15
  %4 = icmp sgt i32 %3, 0
  %5 = zext i1 %4 to i8
  ret i8 %5
}

; Function Attrs: mustprogress uwtable
define noundef signext i8 @_ZN6icu_7712RegexMatcher15isUWordBoundaryElR10UErrorCode(ptr noundef nonnull align 8 dereferenceable(336) %0, i64 noundef %1, ptr noundef nonnull align 4 dereferenceable(4) %2) #1 align 2 {
  %4 = alloca i8, align 1
  %5 = alloca ptr, align 8
  %6 = alloca i64, align 8
  %7 = alloca ptr, align 8
  %8 = alloca i8, align 1
  %9 = alloca i32, align 4
  store ptr %0, ptr %5, align 8, !tbaa !23
  store i64 %1, ptr %6, align 8, !tbaa !18
  store ptr %2, ptr %7, align 8, !tbaa !22
  %10 = load ptr, ptr %5, align 8
  call void @llvm.lifetime.start.p0(i64 1, ptr %8) #11
  store i8 0, ptr %8, align 1, !tbaa !126
  %11 = getelementptr inbounds nuw %"class.icu_77::RegexMatcher", ptr %10, i32 0, i32 40
  %12 = load ptr, ptr %11, align 8, !tbaa !85
  %13 = icmp eq ptr %12, null
  br i1 %13, label %14, label %33

14:                                               ; preds = %3
  %15 = call noundef nonnull align 8 dereferenceable(217) ptr @_ZN6icu_776Locale10getEnglishEv()
  %16 = load ptr, ptr %7, align 8, !tbaa !22
  %17 = call noundef ptr @_ZN6icu_7713BreakIterator18createWordInstanceERKNS_6LocaleER10UErrorCode(ptr noundef nonnull align 8 dereferenceable(217) %15, ptr noundef nonnull align 4 dereferenceable(4) %16)
  %18 = getelementptr inbounds nuw %"class.icu_77::RegexMatcher", ptr %10, i32 0, i32 40
  store ptr %17, ptr %18, align 8, !tbaa !85
  %19 = load ptr, ptr %7, align 8, !tbaa !22
  %20 = load i32, ptr %19, align 4, !tbaa !15
  %21 = call noundef signext i8 @_ZL9U_FAILURE10UErrorCode(i32 noundef %20)
  %22 = icmp ne i8 %21, 0
  br i1 %22, label %23, label %24

23:                                               ; preds = %14
  store i8 0, ptr %4, align 1
  store i32 1, ptr %9, align 4
  br label %51

24:                                               ; preds = %14
  %25 = getelementptr inbounds nuw %"class.icu_77::RegexMatcher", ptr %10, i32 0, i32 40
  %26 = load ptr, ptr %25, align 8, !tbaa !85
  %27 = getelementptr inbounds nuw %"class.icu_77::RegexMatcher", ptr %10, i32 0, i32 4
  %28 = load ptr, ptr %27, align 8, !tbaa !87
  %29 = load ptr, ptr %7, align 8, !tbaa !22
  %30 = load ptr, ptr %26, align 8, !tbaa !27
  %31 = getelementptr inbounds ptr, ptr %30, i64 8
  %32 = load ptr, ptr %31, align 8
  call void %32(ptr noundef nonnull align 8 dereferenceable(32) %26, ptr noundef %28, ptr noundef nonnull align 4 dereferenceable(4) %29)
  br label %33

33:                                               ; preds = %24, %3
  %34 = load i64, ptr %6, align 8, !tbaa !18
  %35 = getelementptr inbounds nuw %"class.icu_77::RegexMatcher", ptr %10, i32 0, i32 13
  %36 = load i64, ptr %35, align 8, !tbaa !61
  %37 = icmp sge i64 %34, %36
  br i1 %37, label %38, label %40

38:                                               ; preds = %33
  %39 = getelementptr inbounds nuw %"class.icu_77::RegexMatcher", ptr %10, i32 0, i32 23
  store i8 1, ptr %39, align 8, !tbaa !71
  store i8 1, ptr %8, align 1, !tbaa !126
  br label %49

40:                                               ; preds = %33
  %41 = getelementptr inbounds nuw %"class.icu_77::RegexMatcher", ptr %10, i32 0, i32 40
  %42 = load ptr, ptr %41, align 8, !tbaa !85
  %43 = load i64, ptr %6, align 8, !tbaa !18
  %44 = trunc i64 %43 to i32
  %45 = load ptr, ptr %42, align 8, !tbaa !27
  %46 = getelementptr inbounds ptr, ptr %45, i64 17
  %47 = load ptr, ptr %46, align 8
  %48 = call noundef signext i8 %47(ptr noundef nonnull align 8 dereferenceable(32) %42, i32 noundef %44)
  store i8 %48, ptr %8, align 1, !tbaa !126
  br label %49

49:                                               ; preds = %40, %38
  %50 = load i8, ptr %8, align 1, !tbaa !126
  store i8 %50, ptr %4, align 1
  store i32 1, ptr %9, align 4
  br label %51

51:                                               ; preds = %49, %23
  call void @llvm.lifetime.end.p0(i64 1, ptr %8) #11
  %52 = load i8, ptr %4, align 1
  ret i8 %52
}