; Function Attrs: mustprogress uwtable
define noundef signext i8 @_ZN6icu_7712RegexMatcher15isUWordBoundaryElR10UErrorCode(ptr noundef nonnull align 8 captures(none) dereferenceable(336) %0, i64 noundef %1, ptr noundef nonnull align 4 dereferenceable(4) %2) local_unnamed_addr #1 align 2 {
  %4 = getelementptr inbounds nuw i8, ptr %0, i64 320
  %5 = load ptr, ptr %4, align 8, !tbaa !79
  %6 = icmp eq ptr %5, null
  br i1 %6, label %7, label %18

7:                                                ; preds = %3
  %8 = tail call noundef nonnull align 8 dereferenceable(217) ptr @_ZN6icu_776Locale10getEnglishEv()
  %9 = tail call noundef ptr @_ZN6icu_7713BreakIterator18createWordInstanceERKNS_6LocaleER10UErrorCode(ptr noundef nonnull align 8 dereferenceable(217) %8, ptr noundef nonnull align 4 dereferenceable(4) %2)
  store ptr %9, ptr %4, align 8, !tbaa !79
  %10 = load i32, ptr %2, align 4, !tbaa !13
  %11 = icmp slt i32 %10, 1
  br i1 %11, label %12, label %30

12:                                               ; preds = %7
  %13 = getelementptr inbounds nuw i8, ptr %0, i64 32
  %14 = load ptr, ptr %13, align 8, !tbaa !77
  %15 = load ptr, ptr %9, align 8, !tbaa !15
  %16 = getelementptr inbounds nuw i8, ptr %15, i64 64
  %17 = load ptr, ptr %16, align 8
  tail call void %17(ptr noundef nonnull align 8 dereferenceable(32) %9, ptr noundef %14, ptr noundef nonnull align 4 dereferenceable(4) %2)
  br label %18

18:                                               ; preds = %12, %3
  %19 = getelementptr inbounds nuw i8, ptr %0, i64 104
  %20 = load i64, ptr %19, align 8, !tbaa !73
  %.not9 = icmp slt i64 %1, %20
  br i1 %.not9, label %23, label %21

21:                                               ; preds = %18
  %22 = getelementptr inbounds nuw i8, ptr %0, i64 168
  store i8 1, ptr %22, align 8, !tbaa !32
  br label %30

23:                                               ; preds = %18
  %24 = load ptr, ptr %4, align 8, !tbaa !79
  %25 = trunc i64 %1 to i32
  %26 = load ptr, ptr %24, align 8, !tbaa !15
  %27 = getelementptr inbounds nuw i8, ptr %26, i64 136
  %28 = load ptr, ptr %27, align 8
  %29 = tail call noundef signext i8 %28(ptr noundef nonnull align 8 dereferenceable(32) %24, i32 noundef %25)
  br label %30

30:                                               ; preds = %21, %23, %7
  %.07 = phi i8 [ 0, %7 ], [ 1, %21 ], [ %29, %23 ]
  ret i8 %.07
}